target datalayout = "e-m:e-p270:32:32-p271:32:32-p272:64:64-i64:64-i128:128-f80:128-n8:16:32:64-S128"
target triple = "x86_64-pc-linux-gnu"

%struct.JNINativeInterface_ = type { ptr, ptr, ptr, ptr, ptr, ptr, ptr, ptr, ptr, ptr, ptr, ptr, ptr, ptr, ptr, ptr, ptr, ptr, ptr, ptr, ptr, ptr, ptr, ptr, ptr, ptr, ptr, ptr, ptr, ptr, ptr, ptr, ptr, ptr, ptr, ptr, ptr, ptr, ptr, ptr, ptr, ptr, ptr, ptr, ptr, ptr, ptr, ptr, ptr, ptr, ptr, ptr, ptr, ptr, ptr, ptr, ptr, ptr, ptr, ptr, ptr, ptr, ptr, ptr, ptr, ptr, ptr, ptr, ptr, ptr, ptr, ptr, ptr, ptr, ptr, ptr, ptr, ptr, ptr, ptr, ptr, ptr, ptr, ptr, ptr, ptr, ptr, ptr, ptr, ptr, ptr, ptr, ptr, ptr, ptr, ptr, ptr, ptr, ptr, ptr, ptr, ptr, ptr, ptr, ptr, ptr, ptr, ptr, ptr, ptr, ptr, ptr, ptr, ptr, ptr, ptr, ptr, ptr, ptr, ptr, ptr, ptr, ptr, ptr, ptr, ptr, ptr, ptr, ptr, ptr, ptr, ptr, ptr, ptr, ptr, ptr, ptr, ptr, ptr, ptr, ptr, ptr, ptr, ptr, ptr, ptr, ptr, ptr, ptr, ptr, ptr, ptr, ptr, ptr, ptr, ptr, ptr, ptr, ptr, ptr, ptr, ptr, ptr, ptr, ptr, ptr, ptr, ptr, ptr, ptr, ptr, ptr, ptr, ptr, ptr, ptr, ptr, ptr, ptr, ptr, ptr, ptr, ptr, ptr, ptr, ptr, ptr, ptr, ptr, ptr, ptr, ptr, ptr, ptr, ptr, ptr, ptr, ptr, ptr, ptr, ptr, ptr, ptr, ptr, ptr, ptr, ptr, ptr, ptr, ptr, ptr, ptr, ptr, ptr, ptr, ptr, ptr, ptr, ptr, ptr, ptr, ptr, ptr, ptr, ptr, ptr, ptr, ptr, ptr, ptr, ptr, ptr, ptr, ptr, ptr }

@.str = private unnamed_addr constant [26 x i8] c"sun/nio/fs/UnixMountEntry\00", align 1
@.str.1 = private unnamed_addr constant [5 x i8] c"name\00", align 1
@.str.2 = private unnamed_addr constant [3 x i8] c"[B\00", align 1
@entry_name = internal global ptr null, align 8
@.str.3 = private unnamed_addr constant [4 x i8] c"dir\00", align 1
@entry_dir = internal global ptr null, align 8
@.str.4 = private unnamed_addr constant [7 x i8] c"fstype\00", align 1
@entry_fstype = internal global ptr null, align 8
@.str.5 = private unnamed_addr constant [5 x i8] c"opts\00", align 1
@entry_options = internal global ptr null, align 8
@.str.6 = private unnamed_addr constant [16 x i8] c"copy_file_range\00", align 1
@my_copy_file_range_func = internal global ptr null, align 8

; Function Attrs: nounwind uwtable
define void @Java_sun_nio_fs_LinuxNativeDispatcher_init(ptr noundef %0, ptr noundef %1) #0 {
  %3 = alloca ptr, align 8
  %4 = alloca ptr, align 8
  store ptr %0, ptr %3, align 8
  store ptr %1, ptr %4, align 8
  %5 = load ptr, ptr %3, align 8
  %6 = load ptr, ptr %5, align 8
  %7 = getelementptr inbounds %struct.JNINativeInterface_, ptr %6, i32 0, i32 6
  %8 = load ptr, ptr %7, align 8
  %9 = load ptr, ptr %3, align 8
  %10 = call ptr %8(ptr noundef %9, ptr noundef @.str)
  store ptr %10, ptr %4, align 8
  br label %11

11:                                               ; preds = %2
  %12 = load ptr, ptr %4, align 8
  %13 = icmp eq ptr %12, null
  br i1 %13, label %14, label %15

14:                                               ; preds = %11
  br label %70

15:                                               ; preds = %11
  br label %16

16:                                               ; preds = %15
  %17 = load ptr, ptr %3, align 8
  %18 = load ptr, ptr %17, align 8
  %19 = getelementptr inbounds %struct.JNINativeInterface_, ptr %18, i32 0, i32 94
  %20 = load ptr, ptr %19, align 8
  %21 = load ptr, ptr %3, align 8
  %22 = load ptr, ptr %4, align 8
  %23 = call ptr %20(ptr noundef %21, ptr noundef %22, ptr noundef @.str.1, ptr noundef @.str.2)
  store ptr %23, ptr @entry_name, align 8
  br label %24

24:                                               ; preds = %16
  %25 = load ptr, ptr @entry_name, align 8
  %26 = icmp eq ptr %25, null
  br i1 %26, label %27, label %28

27:                                               ; preds = %24
  br label %70

28:                                               ; preds = %24
  br label %29

29:                                               ; preds = %28
  %30 = load ptr, ptr %3, align 8
  %31 = load ptr, ptr %30, align 8
  %32 = getelementptr inbounds %struct.JNINativeInterface_, ptr %31, i32 0, i32 94
  %33 = load ptr, ptr %32, align 8
  %34 = load ptr, ptr %3, align 8
  %35 = load ptr, ptr %4, align 8
  %36 = call ptr %33(ptr noundef %34, ptr noundef %35, ptr noundef @.str.3, ptr noundef @.str.2)
  store ptr %36, ptr @entry_dir, align 8
  br label %37

37:                                               ; preds = %29
  %38 = load ptr, ptr @entry_dir, align 8
  %39 = icmp eq ptr %38, null
  br i1 %39, label %40, label %41

40:                                               ; preds = %37
  br label %70

41:                                               ; preds = %37
  br label %42

42:                                               ; preds = %41
  %43 = load ptr, ptr %3, align 8
  %44 = load ptr, ptr %43, align 8
  %45 = getelementptr inbounds %struct.JNINativeInterface_, ptr %44, i32 0, i32 94
  %46 = load ptr, ptr %45, align 8
  %47 = load ptr, ptr %3, align 8
  %48 = load ptr, ptr %4, align 8
  %49 = call ptr %46(ptr noundef %47, ptr noundef %48, ptr noundef @.str.4, ptr noundef @.str.2)
  store ptr %49, ptr @entry_fstype, align 8
  br label %50

50:                                               ; preds = %42
  %51 = load ptr, ptr @entry_fstype, align 8
  %52 = icmp eq ptr %51, null
  br i1 %52, label %53, label %54

53:                                               ; preds = %50
  br label %70

54:                                               ; preds = %50
  br label %55

55:                                               ; preds = %54
  %56 = load ptr, ptr %3, align 8
  %57 = load ptr, ptr %56, align 8
  %58 = getelementptr inbounds %struct.JNINativeInterface_, ptr %57, i32 0, i32 94
  %59 = load ptr, ptr %58, align 8
  %60 = load ptr, ptr %3, align 8
  %61 = load ptr, ptr %4, align 8
  %62 = call ptr %59(ptr noundef %60, ptr noundef %61, ptr noundef @.str.5, ptr noundef @.str.2)
  store ptr %62, ptr @entry_options, align 8
  br label %63

63:                                               ; preds = %55
  %64 = load ptr, ptr @entry_options, align 8
  %65 = icmp eq ptr %64, null
  br i1 %65, label %66, label %67

66:                                               ; preds = %63
  br label %70

67:                                               ; preds = %63
  br label %68

68:                                               ; preds = %67
  %69 = call ptr @dlsym(ptr noundef null, ptr noundef @.str.6) #5
  store ptr %69, ptr @my_copy_file_range_func, align 8
  br label %70

70:                                               ; preds = %68, %66, %53, %40, %27, %14
  ret void
}