; Function Attrs: nounwind uwtable
define void @Java_sun_nio_fs_LinuxNativeDispatcher_init(ptr noundef %0, ptr nocapture noundef readnone %1) local_unnamed_addr #0 {
  %3 = load ptr, ptr %0, align 8
  %4 = getelementptr inbounds i8, ptr %3, i64 48
  %5 = load ptr, ptr %4, align 8
  %6 = tail call ptr %5(ptr noundef nonnull %0, ptr noundef nonnull @.str) #5
  %7 = icmp eq ptr %6, null
  br i1 %7, label %34, label %8

8:                                                ; preds = %2
  %9 = load ptr, ptr %0, align 8
  %10 = getelementptr inbounds i8, ptr %9, i64 752
  %11 = load ptr, ptr %10, align 8
  %12 = tail call ptr %11(ptr noundef nonnull %0, ptr noundef nonnull %6, ptr noundef nonnull @.str.1, ptr noundef nonnull @.str.2) #5
  store ptr %12, ptr @entry_name, align 8
  %13 = icmp eq ptr %12, null
  br i1 %13, label %34, label %14

14:                                               ; preds = %8
  %15 = load ptr, ptr %0, align 8
  %16 = getelementptr inbounds i8, ptr %15, i64 752
  %17 = load ptr, ptr %16, align 8
  %18 = tail call ptr %17(ptr noundef nonnull %0, ptr noundef nonnull %6, ptr noundef nonnull @.str.3, ptr noundef nonnull @.str.2) #5
  store ptr %18, ptr @entry_dir, align 8
  %19 = icmp eq ptr %18, null
  br i1 %19, label %34, label %20

20:                                               ; preds = %14
  %21 = load ptr, ptr %0, align 8
  %22 = getelementptr inbounds i8, ptr %21, i64 752
  %23 = load ptr, ptr %22, align 8
  %24 = tail call ptr %23(ptr noundef nonnull %0, ptr noundef nonnull %6, ptr noundef nonnull @.str.4, ptr noundef nonnull @.str.2) #5
  store ptr %24, ptr @entry_fstype, align 8
  %25 = icmp eq ptr %24, null
  br i1 %25, label %34, label %26

26:                                               ; preds = %20
  %27 = load ptr, ptr %0, align 8
  %28 = getelementptr inbounds i8, ptr %27, i64 752
  %29 = load ptr, ptr %28, align 8
  %30 = tail call ptr %29(ptr noundef nonnull %0, ptr noundef nonnull %6, ptr noundef nonnull @.str.5, ptr noundef nonnull @.str.2) #5
  store ptr %30, ptr @entry_options, align 8
  %31 = icmp eq ptr %30, null
  br i1 %31, label %34, label %32

32:                                               ; preds = %26
  %33 = tail call ptr @dlsym(ptr noundef null, ptr noundef nonnull @.str.6) #5
  store ptr %33, ptr @my_copy_file_range_func, align 8
  br label %34

34:                                               ; preds = %26, %20, %14, %8, %2, %32
  ret void
}